; Function Attrs: nounwind uwtable
define hidden void @_PyErr_ChainExceptions(ptr noundef %0, ptr noundef %1, ptr noundef %2) local_unnamed_addr #0 {
  %4 = alloca ptr, align 8
  %5 = alloca ptr, align 8
  %6 = alloca ptr, align 8
  store ptr %0, ptr %4, align 8, !tbaa !24
  store ptr %1, ptr %5, align 8, !tbaa !24
  store ptr %2, ptr %6, align 8, !tbaa !24
  %7 = icmp eq ptr %0, null
  br i1 %7, label %_PyErr_SetRaisedException.exit, label %8

8:                                                ; preds = %3
  %9 = tail call align 8 ptr @llvm.threadlocal.address.p0(ptr align 8 @_Py_tss_tstate)
  %10 = load ptr, ptr %9, align 8, !tbaa !25
  %11 = getelementptr i8, ptr %0, i64 8
  %.val14 = load ptr, ptr %11, align 8, !tbaa !21
  %12 = getelementptr i8, ptr %.val14, i64 168
  %.val14.val = load i64, ptr %12, align 8, !tbaa !28
  %13 = and i64 %.val14.val, 2147483648
  %.not18 = icmp eq i64 %13, 0
  br i1 %.not18, label %17, label %14

14:                                               ; preds = %8
  %15 = getelementptr i8, ptr %0, i64 168
  %.val = load i64, ptr %15, align 8, !tbaa !28
  %16 = and i64 %.val, 1073741824
  %.not8 = icmp eq i64 %16, 0
  br i1 %.not8, label %17, label %20

17:                                               ; preds = %14, %8
  %18 = load ptr, ptr @PyExc_SystemError, align 8, !tbaa !24
  %19 = tail call ptr (ptr, ptr, ptr, ...) @_PyErr_Format(ptr noundef %10, ptr noundef %18, ptr noundef nonnull @.str.6, ptr noundef nonnull %0)
  br label %_PyErr_SetRaisedException.exit

20:                                               ; preds = %14
  %21 = getelementptr i8, ptr %10, i64 112
  %.val15 = load ptr, ptr %21, align 8, !tbaa !4
  %22 = icmp eq ptr %.val15, null
  br i1 %22, label %_PyErr_Occurred.exit.thread, label %_PyErr_Occurred.exit

_PyErr_Occurred.exit:                             ; preds = %20
  %23 = getelementptr i8, ptr %.val15, i64 8
  %.val.i = load ptr, ptr %23, align 8, !tbaa !21
  %.not9 = icmp eq ptr %.val.i, null
  br i1 %.not9, label %_PyErr_Occurred.exit.thread, label %24

24:                                               ; preds = %_PyErr_Occurred.exit
  call void @_PyErr_NormalizeException(ptr noundef nonnull %10, ptr noundef nonnull %4, ptr noundef nonnull %5, ptr noundef nonnull %6)
  %25 = load ptr, ptr %6, align 8, !tbaa !24
  %.not10 = icmp eq ptr %25, null
  br i1 %.not10, label %Py_DECREF.exit12, label %26

26:                                               ; preds = %24
  %27 = load ptr, ptr %5, align 8, !tbaa !24
  %28 = tail call i32 @PyException_SetTraceback(ptr noundef %27, ptr noundef nonnull %25) #17
  %29 = load i32, ptr %25, align 8, !tbaa !20
  %.not.i11 = icmp sgt i32 %29, -1
  br i1 %.not.i11, label %30, label %Py_DECREF.exit12

30:                                               ; preds = %26
  %31 = add nsw i32 %29, -1
  store i32 %31, ptr %25, align 8, !tbaa !20
  %32 = icmp eq i32 %31, 0
  br i1 %32, label %33, label %Py_DECREF.exit12

33:                                               ; preds = %30
  tail call void @_Py_Dealloc(ptr noundef nonnull %25) #17
  br label %Py_DECREF.exit12

Py_DECREF.exit12:                                 ; preds = %33, %30, %26, %24
  %34 = load ptr, ptr %4, align 8, !tbaa !24
  %35 = load i32, ptr %34, align 8, !tbaa !20
  %.not.i = icmp sgt i32 %35, -1
  br i1 %.not.i, label %36, label %Py_DECREF.exit

36:                                               ; preds = %Py_DECREF.exit12
  %37 = add nsw i32 %35, -1
  store i32 %37, ptr %34, align 8, !tbaa !20
  %38 = icmp eq i32 %37, 0
  br i1 %38, label %39, label %Py_DECREF.exit

39:                                               ; preds = %36
  tail call void @_Py_Dealloc(ptr noundef nonnull %34) #17
  br label %Py_DECREF.exit

Py_DECREF.exit:                                   ; preds = %Py_DECREF.exit12, %36, %39
  %40 = load ptr, ptr %21, align 8, !tbaa !4
  store ptr null, ptr %21, align 8, !tbaa !4
  %41 = load ptr, ptr %5, align 8, !tbaa !24
  tail call void @PyException_SetContext(ptr noundef %40, ptr noundef %41) #17
  %42 = load ptr, ptr %21, align 8, !tbaa !4
  store ptr %40, ptr %21, align 8, !tbaa !4
  %.not.i.i = icmp eq ptr %42, null
  br i1 %.not.i.i, label %_PyErr_SetRaisedException.exit, label %43

43:                                               ; preds = %Py_DECREF.exit
  %44 = load i32, ptr %42, align 8, !tbaa !20
  %.not.i.i.i = icmp sgt i32 %44, -1
  br i1 %.not.i.i.i, label %45, label %_PyErr_SetRaisedException.exit

45:                                               ; preds = %43
  %46 = add nsw i32 %44, -1
  store i32 %46, ptr %42, align 8, !tbaa !20
  %47 = icmp eq i32 %46, 0
  br i1 %47, label %48, label %_PyErr_SetRaisedException.exit

48:                                               ; preds = %45
  tail call void @_Py_Dealloc(ptr noundef nonnull %42) #17
  br label %_PyErr_SetRaisedException.exit

_PyErr_Occurred.exit.thread:                      ; preds = %20, %_PyErr_Occurred.exit
  tail call void @_PyErr_Restore(ptr noundef nonnull %10, ptr noundef nonnull %0, ptr noundef %1, ptr noundef %2)
  br label %_PyErr_SetRaisedException.exit

_PyErr_SetRaisedException.exit:                   ; preds = %48, %45, %43, %Py_DECREF.exit, %17, %_PyErr_Occurred.exit.thread, %3
  ret void
}